(i__main__
network
p0
(dp1
S'test_out'
p2
(lp3
(lp4
F0.666
aa(lp5
F0.666
aa(lp6
F0.0
aa(lp7
F0.0
aa(lp8
F0.0
aa(lp9
F0.666
aa(lp10
F0.0
aa(lp11
F0.0
aa(lp12
F0.0
aa(lp13
F0.666
aa(lp14
F0.666
aa(lp15
F0.666
aa(lp16
F0.666
aa(lp17
F0.0
aa(lp18
F0.666
aa(lp19
F0.666
aa(lp20
F0.0
aa(lp21
F0.0
aa(lp22
F0.0
aa(lp23
F0.0
aa(lp24
F0.666
aa(lp25
F0.666
aa(lp26
F0.0
aa(lp27
F0.0
aa(lp28
F0.0
aa(lp29
F0.0
aa(lp30
F0.0
aa(lp31
F0.0
aa(lp32
F0.0
aa(lp33
F0.0
aa(lp34
F0.0
aa(lp35
F0.0
aa(lp36
F0.666
aa(lp37
F0.666
aa(lp38
F0.0
aa(lp39
F0.666
aa(lp40
F0.666
aa(lp41
F0.666
aa(lp42
F0.0
aa(lp43
F0.0
aa(lp44
F0.0
aa(lp45
F0.0
aa(lp46
F0.666
aa(lp47
F0.666
aa(lp48
F0.666
aa(lp49
F0.0
aa(lp50
F0.666
aa(lp51
F0.666
aa(lp52
F0.666
aa(lp53
F0.666
aa(lp54
F0.666
aa(lp55
F0.0
aa(lp56
F0.0
aa(lp57
F0.0
aa(lp58
F0.666
aa(lp59
F0.0
aa(lp60
F0.0
aa(lp61
F0.666
aa(lp62
F0.0
aa(lp63
F0.0
aa(lp64
F0.666
aa(lp65
F0.666
aa(lp66
F0.0
aa(lp67
F0.0
aa(lp68
F0.666
aa(lp69
F0.0
aa(lp70
F0.666
aa(lp71
F0.666
aa(lp72
F0.0
aa(lp73
F0.0
aa(lp74
F0.0
aa(lp75
F0.0
aa(lp76
F0.0
aa(lp77
F1.0
aa(lp78
F0.333
aa(lp79
F0.0
aa(lp80
F0.0
aa(lp81
F1.0
aa(lp82
F1.0
aa(lp83
F1.0
aa(lp84
F1.0
aa(lp85
F0.333
aa(lp86
F0.666
aa(lp87
F0.666
aa(lp88
F0.666
aa(lp89
F0.0
aa(lp90
F1.0
aa(lp91
F1.0
aa(lp92
F1.0
aa(lp93
F0.0
aa(lp94
F0.666
aa(lp95
F0.0
aa(lp96
F1.0
aa(lp97
F0.666
aa(lp98
F0.0
aa(lp99
F0.0
aa(lp100
F0.666
aa(lp101
F0.0
aa(lp102
F0.0
aa(lp103
F0.0
aa(lp104
F1.0
aa(lp105
F1.0
aa(lp106
F0.0
aa(lp107
F1.0
aa(lp108
F0.666
aa(lp109
F0.0
aa(lp110
F0.666
aa(lp111
F1.0
aa(lp112
F0.666
aa(lp113
F0.0
aa(lp114
F0.0
aa(lp115
F0.0
aa(lp116
F0.0
aa(lp117
F0.666
aa(lp118
F0.666
aa(lp119
F0.666
aa(lp120
F0.0
aa(lp121
F0.0
aa(lp122
F0.666
aa(lp123
F0.333
aa(lp124
F1.0
aa(lp125
F1.0
aasS'test_set'
p126
(lp127
(lp128
F-0.0860956883
aF-0.3847756414
aF0.0385868372
aF1.3779990996
aF1.4928393624
aF-0.967095359
aF0.0458588464
aF0.0158006406
aF-1.071580448
aF-0.7098251593
aa(lp129
F-0.0860956883
aF-0.3847756414
aF0.0385868372
aF1.2340176155
aF1.3871182978
aF-0.33242915
aF0.7270760124
aF0.6124110362
aF-0.4534695135
aF-0.2595450302
aa(lp130
F-0.3975762345
aF-0.3847756414
aF0.0385868372
aF1.1408531258
aF1.1756761684
aF-1.1401861432
aF0.4351257984
aF0.4135409044
aF-0.8998829662
aF-0.5847473456
aa(lp131
F-0.3975762345
aF-0.3847756414
aF0.0385868372
aF1.428816094
aF1.1756761684
aF-0.7363076466
aF0.7270760124
aF1.0101513
aF-0.8998829662
aF-1.0350274747
aa(lp132
F-0.3975762345
aF-0.3847756414
aF0.0385868372
aF1.6574925687
aF1.4928393624
aF0.1868432027
aF1.3109764404
aF1.4078915637
aF0.9201103408
aF0.991233106
aa(lp133
F0.0869490596
aF-0.3847756414
aF0.0385868372
aF0.7681951671
aF0.7527919098
aF-0.33242915
aF1.0190262264
aF0.7118461022
aF-0.0070560609
aF0.4158751633
aa(lp134
F-0.3975762345
aF-0.3847756414
aF0.0385868372
aF0.7173781727
aF0.5317387746
aF-1.0824892151
aF1.2136597024
aF1.0101513
aF-1.071580448
aF-1.1350897256
aa(lp135
F-0.3975762345
aF-0.3847756414
aF0.0385868372
aF1.0476886361
aF0.4260177099
aF-0.9093984309
aF-0.5380415816
aF-0.580809755
aF-0.7625249808
aF-0.7098251593
aa(lp136
F-0.3975762345
aF-0.3847756414
aF0.0385868372
aF0.9545241464
aF1.0122890685
aF-0.6209137905
aF-0.3434081056
aF-0.6802448209
aF-0.7625249808
aF-0.5847473456
aa(lp137
F-0.1380091127
aF-0.3847756414
aF0.0385868372
aF1.0476886361
aF1.2333422037
aF-0.0439445096
aF-0.1487746296
aF0.0158006406
aF-0.0070560609
aF0.3158129124
aa(lp138
F1.055999648
aF-0.3847756414
aF0.0385868372
aF0.8613596568
aF0.8585129744
aF1.1676909802
aF0.0458588464
aF-0.0836344253
aF0.6110548735
aF1.0912953569
aa(lp139
F-0.2591404362
aF-0.3847756414
aF0.0385868372
aF0.1583912345
aF0.4260177099
aF-0.7940045747
aF1.5056099164
aF0.0158006406
aF-0.7625249808
aF-0.5847473456
aa(lp140
F-0.1726180622
aF-0.3847756414
aF0.0385868372
aF0.3447202139
aF0.3202966452
aF-0.6786107185
aF1.1163429644
aF1.0101513
aF1.4008632898
aF1.4164976723
aa(lp141
F-0.3975762345
aF-0.3847756414
aF0.0385868372
aF0.1583912345
aF0.0511884806
aF-1.6017615679
aF-1.7058424376
aF-1.6745954803
aF-1.6896913824
aF-1.3602297901
aa(lp142
F0.0350356353
aF-0.3847756414
aF0.0385868372
aF0.5818661877
aF0.5317387746
aF-1.0824892151
aF0.2404923224
aF0.2146707725
aF-1.071580448
aF-1.1350897256
aa(lp143
F0.3119072319
aF-0.3847756414
aF0.0385868372
aF0.4802321989
aF0.4260177099
aF-0.6786107185
aF1.1163429644
aF1.2090214318
aF-0.7625249808
aF-0.7098251593
aa(lp144
F-0.3975762345
aF-0.3847756414
aF0.0385868372
aF0.5818661877
aF0.3202966452
aF-0.7363076466
aF0.7270760124
aF0.2146707725
aF-0.590827499
aF-0.7098251593
aa(lp145
F-0.3975762345
aF-0.3847756414
aF0.0385868372
aF0.2515557242
aF0.1088545159
aF-0.6209137905
aF-1.6085256996
aF-1.6745954803
aF0.1646414209
aF-0.2595450302
aa(lp146
F-0.3975762345
aF-0.3847756414
aF0.0385868372
aF0.2515557242
aF0.0511884806
aF-0.3901260781
aF-0.8299917956
aF-1.0779850847
aF-0.8998829662
aF-0.7098251593
aa(lp147
F-0.3975762345
aF-0.3847756414
aF0.0385868372
aF1.0476886361
aF0.9065680038
aF0.5907216993
aF0.0458588464
aF-0.0836344253
aF0.3019994063
aF0.3158129124
aa(lp148
F0.8310414757
aF-0.3847756414
aF0.0385868372
aF1.0476886361
aF0.9642340391
aF1.1676909802
aF0.5324425364
aF0.4135409044
aF0.9201103408
aF0.8661552923
aa(lp149
F-0.0860956883
aF-0.3847756414
aF0.0385868372
aF0.0144097505
aF0.2722416158
aF0.6484186274
aF0.9217094884
aF1.0101513
aF0.6110548735
aF0.8661552923
aa(lp150
F-0.3975762345
aF-0.3847756414
aF0.0385868372
aF0.7173781727
aF0.1665205512
aF-0.5055199343
aF0.4351257984
aF0.4135409044
aF-0.590827499
aF-0.5847473456
aa(lp151
F-0.3975762345
aF-0.3847756414
aF0.0385868372
aF0.9545241464
aF0.4260177099
aF-1.1401861432
aF-0.8299917956
aF-1.0779850847
aF-1.2089384334
aF-0.9099496611
aa(lp152
F-0.3975762345
aF-0.3847756414
aF0.0385868372
aF0.7681951671
aF0.5894048098
aF-1.3709738555
aF-1.0246252716
aF-0.9785500187
aF-0.8998829662
aF-1.0350274747
aa(lp153
F-0.3975762345
aF-0.3847756414
aF0.0385868372
aF0.9037071521
aF0.5317387746
aF-1.3132769275
aF-1.7058424376
aF-1.7740305462
aF-1.5179939006
aF-1.3602297901
aa(lp154
F-0.3975762345
aF-0.3847756414
aF0.0385868372
aF1.0053411408
aF0.5894048098
aF-1.1401861432
aF-1.7058424376
aF-1.7740305462
aF-1.5179939006
aF-1.3602297901
aa(lp155
F-0.3975762345
aF-0.3847756414
aF0.0385868372
aF1.0985056305
aF0.6470708451
aF-1.3709738555
aF-1.4138922236
aF-1.7740305462
aF-1.5179939006
aF-1.4853076037
aa(lp156
F-0.3975762345
aF-0.3847756414
aF0.0385868372
aF1.0476886361
aF0.7527919098
aF-1.1401861432
aF1.5056099164
aF1.5073266296
aF-0.7625249808
aF-1.0350274747
aa(lp157
F-0.3975762345
aF-0.3847756414
aF0.0385868372
aF0.8613596568
aF0.8585129744
aF-0.5632168624
aF-1.8031591756
aF-1.4757253484
aF-0.590827499
aF-0.8098874102
aa(lp158
F-0.3975762345
aF-0.3847756414
aF0.0385868372
aF0.5818661877
aF0.8585129744
aF-0.9093984309
aF-1.6085256996
aF-1.9729006781
aF-1.071580448
aF-1.1350897256
aa(lp159
F-0.3975762345
aF-0.3847756414
aF0.0385868372
aF0.8613596568
aF0.6951258745
aF-1.1401861432
aF-0.2460913676
aF-0.6802448209
aF-1.5179939006
aF-1.3602297901
aa(lp160
F-0.2591404362
aF-0.3847756414
aF0.0385868372
aF0.7681951671
aF0.9642340391
aF1.1099940521
aF-0.2460913676
aF-0.3819396231
aF1.709918757
aF1.8667778013
aa(lp161
F0.4330385555
aF-0.3847756414
aF0.0385868372
aF0.4802321989
aF0.0511884806
aF0.8215094117
aF0.6297592744
aF0.7118461022
aF1.229165808
aF1.1913576077
aa(lp162
F-0.3975762345
aF-0.3847756414
aF0.0385868372
aF-0.1719192289
aF-0.054532584
aF0.3022370589
aF0.2404923224
aF0.4135409044
aF0.3019994063
aF0.3158129124
aa(lp163
F0.0350356353
aF-0.3847756414
aF0.0385868372
aF0.5818661877
aF0.2145755806
aF0.2445401308
aF-0.1487746296
aF-0.1830694913
aF0.3019994063
aF0.6410152278
aa(lp164
F0.2599938076
aF-0.3847756414
aF0.0385868372
aF0.5310491933
aF0.9065680038
aF0.1291462746
aF0.2404923224
aF0.2146707725
aF1.5382212752
aF1.1913576077
aa(lp165
F0.0350356353
aF-0.3847756414
aF0.0385868372
aF0.2515557242
aF0.4836837452
aF1.2830848363
aF0.5324425364
aF0.4135409044
aF2.6027456623
aF2.4421357439
aa(lp166
F-0.3975762345
aF-0.3847756414
aF0.0385868372
aF0.2515557242
aF0.0031334512
aF0.4176309151
aF0.5324425364
aF0.6124110362
aF0.7827523553
aF0.8661552923
aa(lp167
F-0.3975762345
aF-0.3847756414
aF0.0385868372
aF0.1075742402
aF0.0031334512
aF-0.6786107185
aF1.1163429644
aF-1.7740305462
aF-0.590827499
aF-0.4846850947
aa(lp168
F-0.3975762345
aF-0.3847756414
aF0.0385868372
aF0.0144097505
aF-0.1025876134
aF-1.1401861432
aF1.2136597024
aF1.5073266296
aF-0.8998829662
aF-0.8098874102
aa(lp169
F-0.3975762345
aF-0.3847756414
aF0.0385868372
aF0.1583912345
aF-0.3140297428
aF-0.9093984309
aF-1.5112089616
aF-0.7796798869
aF-1.071580448
aF-1.1350897256
aa(lp170
F-0.1726180622
aF-0.3847756414
aF0.0385868372
aF0.7681951671
aF0.1088545159
aF-0.5632168624
aF-0.2460913676
aF-0.2825045572
aF-0.590827499
aF-0.5847473456
aa(lp171
F-0.3456628102
aF-0.3847756414
aF0.0385868372
aF1.1916701202
aF1.1756761684
aF1.3984786925
aF-0.1487746296
aF-0.1830694913
aF1.5382212752
aF1.4164976723
aa(lp172
F0.225384858
aF-0.3847756414
aF0.0385868372
aF0.8105426624
aF1.127621139
aF-0.5055199343
aF0.5324425364
aF-0.580809755
aF0.3019994063
aF0.3158129124
aa(lp173
F-0.3975762345
aF-0.3847756414
aF0.0385868372
aF0.5818661877
aF0.7527919098
aF-0.1593383658
aF0.4351257984
aF0.4135409044
aF0.1646414209
aF-0.0344049657
aa(lp174
F-0.0860956883
aF-0.3847756414
aF0.0385868372
aF0.4378847036
aF0.6951258745
aF0.0714493466
aF0.0458588464
aF-0.1830694913
aF-0.0070560609
aF0.3158129124
aa(lp175
F-0.0860956883
aF-0.3847756414
aF0.0385868372
aF0.2515557242
aF0.1665205512
aF0.8792063397
aF0.3378090604
aF0.3141058384
aF0.4736968881
aF0.3158129124
aa(lp176
F-0.3456628102
aF-0.3847756414
aF0.0385868372
aF-0.4598821971
aF-0.2083086781
aF0.0714493466
aF0.8243927504
aF0.910716234
aF0.1646414209
aF-0.2595450302
aa(lp177
F0.6579967278
aF-0.3847756414
aF0.0385868372
aF-0.1295717336
aF-0.1602536487
aF-0.5632168624
aF-0.0514578916
aF-0.0836344253
aF-0.590827499
aF-0.4846850947
aa(lp178
F1.9385278624
aF-0.3847756414
aF0.0385868372
aF-0.0787547392
aF0.4260177099
aF0.1868432027
aF-1.6085256996
aF-1.7740305462
aF0.4736968881
aF0.5409529769
aa(lp179
F-0.3975762345
aF-0.3847756414
aF0.0385868372
aF-0.2650837186
aF0.4260177099
aF1.2253879082
aF-1.8031591756
aF-1.9729006781
aF-0.0070560609
aF-0.1344672166
aa(lp180
F-0.3975762345
aF-0.3847756414
aF0.0385868372
aF0.1583912345
aF0.4260177099
aF0.8215094117
aF1.1163429644
aF1.3084564978
aF0.1646414209
aF0.1907350988
aa(lp181
F-0.3975762345
aF-0.3847756414
aF0.0385868372
aF0.1583912345
aF0.2145755806
aF0.1291462746
aF0.5324425364
aF0.5129759703
aF-0.4534695135
aF-0.3596072811
aa(lp182
F0.0350356353
aF-0.3847756414
aF0.0385868372
aF0.4378847036
aF0.2722416158
aF0.6484186274
aF0.4351257984
aF0.4135409044
aF2.0189742242
aF1.9918556149
aa(lp183
F-0.3975762345
aF-0.3847756414
aF0.0385868372
aF-0.2227362233
aF0.2145755806
aF1.1099940521
aF0.7270760124
aF0.6124110362
aF0.4736968881
aF0.6410152278
aa(lp184
F-0.3975762345
aF-0.3847756414
aF0.0385868372
aF0.1583912345
aF-0.2083086781
aF-0.8517015028
aF-0.7326750576
aF-0.7796798869
aF-0.8998829662
aF-0.7098251593
aa(lp185
F-0.2245314866
aF-0.3847756414
aF0.0385868372
aF1.0985056305
aF0.6470708451
aF1.2830848363
aF0.2404923224
aF0.1152357065
aF0.9201103408
aF1.1913576077
aa(lp186
F-0.3975762345
aF-0.3847756414
aF0.0385868372
aF0.0144097505
aF0.3779626805
aF0.1291462746
aF0.1431755844
aF0.6124110362
aF-0.2817720318
aF-0.2595450302
aa(lp187
F-0.3975762345
aF-0.3847756414
aF0.0385868372
aF-0.3667177074
aF0.0031334512
aF-0.8517015028
aF0.9217094884
aF1.0101513
aF-0.7625249808
aF-0.8098874102
aa(lp188
F-0.1380091127
aF-0.3847756414
aF0.0385868372
aF-0.315900713
aF0.1088545159
aF-1.024792287
aF-0.6353583196
aF-0.6802448209
aF-0.590827499
aF-0.8098874102
aa(lp189
F1.9385278624
aF-0.3847756414
aF0.0385868372
aF-0.5953941821
aF-0.1025876134
aF0.9946001959
aF-1.9004759136
aF-1.9729006781
aF0.3019994063
aF0.0906728479
aa(lp190
F-0.3975762345
aF-0.3847756414
aF0.0385868372
aF-0.6885586718
aF-0.1602536487
aF1.1676909802
aF1.5056099164
aF1.5073266296
aF0.6110548735
aF0.5409529769
aa(lp191
F-0.3975762345
aF-0.3847756414
aF0.0385868372
aF0.0144097505
aF0.0031334512
aF0.4176309151
aF0.5324425364
aF0.4135409044
aF0.9201103408
aF1.1913576077
aa(lp192
F-0.1726180622
aF-0.3847756414
aF0.0385868372
aF0.5818661877
aF0.4836837452
aF0.6484186274
aF0.5324425364
aF0.5129759703
aF0.4736968881
aF0.6410152278
aa(lp193
F-0.3975762345
aF-0.3847756414
aF0.0385868372
aF0.0144097505
aF-0.1602536487
aF0.9369032678
aF0.3378090604
aF0.4135409044
aF1.8472767424
aF1.7667155504
aa(lp194
F1.3674801942
aF-0.3847756414
aF0.0385868372
aF-0.5530466868
aF-0.3140297428
aF-1.5440646398
aF-1.0246252716
aF-1.1774201506
aF-1.8270493679
aF-1.8105099191
aa(lp195
F1.5751338917
aF-0.3847756414
aF0.0385868372
aF-0.6462111764
aF-0.3140297428
aF0.1291462746
aF1.1163429644
aF1.1095863659
aF0.6110548735
aF0.5409529769
aa(lp196
F-0.3975762345
aF-0.3847756414
aF0.0385868372
aF-0.5022296924
aF-0.4678058368
aF-0.33242915
aF0.5324425364
aF0.5129759703
aF0.4736968881
aF0.4158751633
aa(lp197
F-0.3975762345
aF-0.3847756414
aF0.0385868372
aF-0.5022296924
aF-0.054532584
aF0.0137524185
aF0.6297592744
aF0.6124110362
aF-0.2817720318
aF-0.2595450302
aa(lp198
F-0.3975762345
aF-0.3847756414
aF0.0385868372
aF0.0567572458
aF0.0511884806
aF-0.6209137905
aF-0.0514578916
aF-0.0836344253
aF0.1646414209
aF0.3158129124
aa(lp199
F-0.3975762345
aF-0.3847756414
aF0.0385868372
aF0.5818661877
aF0.6470708451
aF0.6484186274
aF-0.1487746296
aF-0.1830694913
aF0.1646414209
aF0.3158129124
aa(lp200
F-0.3975762345
aF-0.3847756414
aF0.0385868372
aF0.0567572458
aF-0.2083086781
aF1.5138725487
aF0.7270760124
aF0.7118461022
aF0.9201103408
aF0.7660930414
aa(lp201
F-0.3456628102
aF-0.3847756414
aF0.0481147736
aF-0.9257046455
aF-0.5254718721
aF0.0714493466
aF0.6297592744
aF0.7118461022
aF-0.590827499
aF-0.5847473456
aa(lp202
F-0.3975762345
aF-0.3847756414
aF0.0481147736
aF-0.9257046455
aF-0.6792479661
aF0.4753278431
aF0.7270760124
aF0.6124110362
aF0.3019994063
aF0.0906728479
aa(lp203
F-0.3975762345
aF-0.3847756414
aF0.0385868372
aF-0.8325401558
aF-0.5254718721
aF-0.1593383658
aF0.5324425364
aF0.4135409044
aF-0.590827499
aF-0.7098251593
aa(lp204
F-0.3975762345
aF-0.3847756414
aF0.0385868372
aF-0.7901926605
aF-0.4197508074
aF-0.1016414377
aF0.4351257984
aF0.4135409044
aF-0.2817720318
aF-0.5847473456
aa(lp205
F1.1771309715
aF-0.3847756414
aF0.1796002959
aF-0.9765216399
aF-0.6792479661
aF-0.1016414377
aF0.6297592744
aF0.6124110362
aF0.9201103408
aF1.1913576077
aa(lp206
F-0.3110538606
aF0.1505856386
aF0.05764271
aF-1.4338745893
aF-1.1597982601
aF2.8985988227
aF0.3378090604
aF0.2146707725
aF1.5382212752
aF1.4164976723
aa(lp207
F-0.2591404362
aF0.1505856386
aF0.0671706464
aF-1.1628506193
aF-1.2655193247
aF1.052297124
aF0.3378090604
aF0.3141058384
aF0.6110548735
aF0.5409529769
aa(lp208
F0.0004266857
aF1.0428544384
aF0.1643555977
aF-1.2051981146
aF-0.9483561308
aF1.2830848363
aF0.5324425364
aF0.6124110362
aF1.229165808
aF1.4164976723
aa(lp209
F-0.3975762345
aF1.0428544384
aF0.05764271
aF-1.2983626043
aF-1.0540771954
aF0.4176309151
aF0.5324425364
aF0.5129759703
aF-0.4534695135
aF-0.2595450302
aa(lp210
F-0.0514867387
aF0.1505856386
aF0.0385868372
aF-0.5530466868
aF-0.8426350661
aF1.3984786925
aF0.1431755844
aF0.0158006406
aF-0.0070560609
aF0.3158129124
aa(lp211
F-0.2245314866
aF-0.3847756414
aF0.0385868372
aF-0.0787547392
aF0.2145755806
aF-0.0439445096
aF-0.3434081056
aF-0.4813746891
aF-0.0070560609
aF0.1907350988
aa(lp212
F-0.0514867387
aF-0.3847756414
aF0.0385868372
aF0.624213683
aF0.3202966452
aF2.6678111103
aF0.5324425364
aF0.6124110362
aF2.3280296914
aF1.8667778013
aa(lp213
F-0.3975762345
aF-0.3847756414
aF0.0385868372
aF-0.5022296924
aF-0.2083086781
aF2.0908418295
aF0.3378090604
aF0.4135409044
aF2.0189742242
aF1.8667778013
aa(lp214
F-0.0514867387
aF-0.3847756414
aF0.0824153446
aF-0.9257046455
aF-0.4678058368
aF-0.7363076466
aF-1.5112089616
aF-1.5751604143
aF-0.4534695135
aF-0.7098251593
aa(lp215
F-0.1726180622
aF0.1505856386
aF0.05764271
aF-1.1120336249
aF-0.5735269015
aF-0.7940045747
aF0.8243927504
aF0.7118461022
aF-1.5179939006
aF-1.4853076037
aa(lp216
F-0.3110538606
aF0.1505856386
aF0.0633594718
aF-1.2475456099
aF-0.7849690308
aF0.2445401308
aF0.6297592744
aF0.8112811681
aF-0.0070560609
aF-0.1344672166
aa(lp217
F-0.3975762345
aF-0.3847756414
aF0.0385868372
aF-0.7393756661
aF-0.7369140014
aF0.1868432027
aF-0.0514578916
aF-0.1830694913
aF-0.0070560609
aF0.1907350988
aa(lp218
F0.1215580092
aF-0.3847756414
aF0.0385868372
aF0.2007387298
aF0.1088545159
aF1.052297124
aF-0.1487746296
aF-0.0836344253
aF0.3019994063
aF0.1907350988
aa(lp219
F-0.3975762345
aF-0.3847756414
aF0.0385868372
aF-0.0364072439
aF-0.6311929368
aF0.9369032678
aF1.2136597024
aF0.8112811681
aF-0.0070560609
aF-0.1344672166
aa(lp220
F0.0869490596
aF-0.3847756414
aF0.0443035991
aF-0.7393756661
aF-0.8426350661
aF0.3022370589
aF-0.1487746296
aF0.0158006406
aF-0.2817720318
aF-0.1344672166
aa(lp221
F-0.2245314866
aF-0.3847756414
aF0.0385868372
aF-0.6885586718
aF-0.2659747134
aF1.1676909802
aF0.6297592744
aF0.5129759703
aF0.7827523553
aF0.8661552923
aa(lp222
F-0.3975762345
aF-0.3847756414
aF0.0385868372
aF-1.0188691352
aF-0.7849690308
aF0.0137524185
aF0.7270760124
aF0.6124110362
aF0.3019994063
aF0.6410152278
aa(lp223
F-0.3975762345
aF-0.3847756414
aF0.0385868372
aF-0.7393756661
aF-0.7849690308
aF-0.4478230062
aF-0.1487746296
aF-0.1830694913
aF-0.4534695135
aF-0.2595450302
aa(lp224
F1.1771309715
aF-0.3847756414
aF0.0385868372
aF-0.8325401558
aF-0.2083086781
aF-0.33242915
aF-1.8031591756
aF-1.8734656121
aF-0.4534695135
aF-0.7098251593
aa(lp225
F-0.3975762345
aF-0.3847756414
aF0.0385868372
aF-0.9765216399
aF-0.9003011014
aF0.2445401308
aF-1.6085256996
aF-1.5751604143
aF-0.2817720318
aF-0.2595450302
aa(lp226
F-0.3975762345
aF-0.3847756414
aF0.0385868372
aF-0.9257046455
aF-0.9483561308
aF0.2445401308
aF-0.4407248436
aF-0.580809755
aF0.4736968881
aF0.7660930414
aa(lp227
F-0.3975762345
aF-0.3847756414
aF0.0385868372
aF-0.5022296924
aF-0.4197508074
aF-0.1016414377
aF-1.8031591756
aF-1.8734656121
aF-0.0070560609
aF-0.3596072811
aa(lp228
F3.0806231986
aF-0.3847756414
aF0.459721626
aF-0.9765216399
aF-0.5735269015
aF1.1676909802
aF1.2136597024
aF1.4078915637
aF0.3019994063
aF0.1907350988
aa(lp229
F0.2599938076
aF4.6119296379
aF0.1643555977
aF-1.3407100996
aF-0.7369140014
aF0.1868432027
aF0.8243927504
aF0.910716234
aF-0.590827499
aF-0.5847473456
aa(lp230
F-0.3975762345
aF3.1842995581
aF0.0385868372
aF-1.1120336249
aF-0.7369140014
aF0.0714493466
aF0.9217094884
aF0.910716234
aF-0.0070560609
aF-0.0344049657
aa(lp231
F-0.2591404362
aF2.8273920382
aF0.0481147736
aF-0.9765216399
aF-0.4197508074
aF0.3022370589
aF0.5324425364
aF0.6124110362
aF0.1646414209
aF-0.1344672166
aa(lp232
F-0.3456628102
aF2.2920307582
aF0.0385868372
aF-0.8833571502
aF-0.2083086781
aF-0.7940045747
aF1.0190262264
aF0.910716234
aF-1.071580448
aF-1.2601675392
aa(lp233
F-0.3975762345
aF1.0428544384
aF0.0385868372
aF-0.9257046455
aF-0.2083086781
aF-1.4863677117
aF-0.5380415816
aF-0.8791149528
aF-1.6896913824
aF-1.5853698546
aa(lp234
F0.8829549001
aF0.5074931585
aF0.0385868372
aF-0.5953941821
aF-0.2083086781
aF-0.3901260781
aF-0.0514578916
aF0.0158006406
aF-0.7625249808
aF-0.5847473456
aa(lp235
F-0.0860956883
aF-0.3847756414
aF0.05764271
aF-0.5953941821
aF-0.371695778
aF1.9177510453
aF0.5324425364
aF0.5129759703
aF1.4008632898
aF1.1913576077
aa(lp236
F-0.3110538606
aF-0.3847756414
aF0.0385868372
aF-1.1120336249
aF-0.5735269015
aF1.1099940521
aF0.6297592744
aF0.8112811681
aF0.1646414209
aF0.3158129124
aa(lp237
F-0.3975762345
aF-0.3847756414
aF0.0385868372
aF-1.2475456099
aF-0.7369140014
aF-0.0439445096
aF0.9217094884
aF1.1095863659
aF-0.590827499
aF-0.5847473456
aa(lp238
F-0.3975762345
aF-0.3847756414
aF0.0385868372
aF-1.1628506193
aF-0.5735269015
aF-1.5440646398
aF0.7270760124
aF0.910716234
aF-1.6896913824
aF-1.5853698546
aa(lp239
F-0.3975762345
aF-0.3847756414
aF0.0385868372
aF-0.9257046455
aF-0.6792479661
aF-1.3132769275
aF-0.6353583196
aF0.8112811681
aF-1.6896913824
aF-1.7104476682
aa(lp240
F-0.3975762345
aF-0.3847756414
aF0.0385868372
aF-0.7901926605
aF-0.6311929368
aF-0.2747322219
aF-0.5380415816
aF-0.580809755
aF-0.8998829662
aF-1.0350274747
aa(lp241
F-0.0514867387
aF-0.3847756414
aF0.0385868372
aF-0.2650837186
aF-0.2083086781
aF-0.5055199343
aF-0.3434081056
aF-0.2825045572
aF-0.8998829662
aF-0.9099496611
aa(lp242
F0.0869490596
aF-0.3847756414
aF0.0385868372
aF0.0144097505
aF0.4260177099
aF0.3022370589
aF0.6297592744
aF0.7118461022
aF2.0189742242
aF1.5415754859
aa(lp243
F-0.3110538606
aF-0.3847756414
aF0.0385868372
aF-0.2227362233
aF0.0511884806
aF3.4178711754
aF0.4351257984
aF0.4135409044
aF3.2208565967
aF2.9924781239
aa(lp244
F-0.3975762345
aF-0.3847756414
aF0.0385868372
aF-0.4598821971
aF-0.371695778
aF0.0137524185
aF0.6297592744
aF0.6124110362
aF0.4736968881
aF0.4158751633
aa(lp245
F-0.3975762345
aF-0.3847756414
aF0.0385868372
aF-0.0787547392
aF-0.4197508074
aF-0.1016414377
aF0.0458588464
aF0.0158006406
aF-0.2817720318
aF-0.0344049657
aa(lp246
F-0.1726180622
aF-0.3847756414
aF0.0385868372
aF-0.1719192289
aF-0.4678058368
aF0.7638124836
aF0.9217094884
aF0.5129759703
aF0.4736968881
aF0.4158751633
aa(lp247
F-0.3975762345
aF-0.3847756414
aF0.0443035991
aF-1.1628506193
aF-0.7369140014
aF-0.5055199343
aF-1.9004759136
aF-1.9729006781
aF-0.4534695135
aF-0.8098874102
aa(lp248
F-0.0514867387
aF0.1505856386
aF0.1300550266
aF-1.4338745893
aF-1.006022166
aF-0.6786107185
aF0.6297592744
aF0.4135409044
aF0.1646414209
aF0.0906728479
aasS'output_size'
p249
I1
sS'training_set'
p250
(lp251
(lp252
F1.0906085976
aF1.3997619584
aF0.4254210549
aF-1.9505140321
aF-1.8037356539
aF1.9177510453
aF-1.6085256996
aF-1.7740305462
aF1.229165808
aF1.0912953569
aa(lp253
F-0.3110538606
aF4.076568358
aF0.0824153446
aF-2.2808244956
aF-2.3900070125
aF-0.2170352939
aF-1.9004759136
aF-1.9729006781
aF0.1646414209
aF-0.0344049657
aa(lp254
F-0.3975762345
aF3.719660838
aF0.0385868372
aF-0.9257046455
aF-2.0151777833
aF0.0714493466
aF-0.0514578916
aF0.0158006406
aF0.4736968881
aF0.5409529769
aa(lp255
F-0.3110538606
aF3.1842995581
aF0.0385868372
aF-0.4598821971
aF-0.6311929368
aF-0.6786107185
aF-0.2460913676
aF-0.1830694913
aF0.4736968881
aF0.6410152278
aa(lp256
F-0.0860956883
aF0.5074931585
aF0.0538315354
aF-0.4090652027
aF-1.8614016892
aF3.7063558159
aF0.4351257984
aF0.4135409044
aF2.7744431441
aF2.5421979948
aa(lp257
F-0.3110538606
aF0.5074931585
aF0.0728874082
aF-2.4248059797
aF-2.2266199126
aF3.3601742474
aF0.4351257984
aF0.2146707725
aF1.709918757
aF2.0919178658
aa(lp258
F-0.3975762345
aF0.5074931585
aF0.0443035991
aF-1.7218375574
aF-1.8614016892
aF0.2445401308
aF0.3378090604
aF0.3141058384
aF-0.0070560609
aF-0.2595450302
aa(lp259
F-0.3975762345
aF0.5074931585
aF0.0385868372
aF-1.4846915837
aF-1.48657246
aF-0.5055199343
aF0.2404923224
aF0.2146707725
aF-1.071580448
aF-1.2601675392
aa(lp260
F-0.1380091127
aF0.5074931585
aF0.0671706464
aF-0.7393756661
aF-0.9003011014
aF-0.967095359
aF-0.4407248436
aF-0.2825045572
aF-1.2089384334
aF-1.1350897256
aa(lp261
F0.8829549001
aF-0.3847756414
aF0.0385868372
aF-0.1719192289
aF-0.1025876134
aF1.2830848363
aF0.5324425364
aF0.4135409044
aF2.4653876769
aF2.4421357439
aa(lp262
F-0.3975762345
aF-0.3847756414
aF0.0385868372
aF-0.9257046455
aF-0.4197508074
aF1.4561756206
aF0.5324425364
aF0.5129759703
aF1.4008632898
aF0.991233106
aa(lp263
F-0.3975762345
aF-0.3847756414
aF0.0385868372
aF-0.1719192289
aF-0.2659747134
aF0.7638124836
aF0.1431755844
aF0.2146707725
aF0.6110548735
aF0.3158129124
aa(lp264
F-0.3975762345
aF-0.3847756414
aF0.0385868372
aF-0.5022296924
aF-0.7369140014
aF-0.5632168624
aF0.5324425364
aF0.4135409044
aF-0.590827499
aF-0.7098251593
aa(lp265
F-0.3110538606
aF-0.3847756414
aF0.0385868372
aF-0.9257046455
aF-0.5735269015
aF0.359933987
aF0.6297592744
aF0.6124110362
aF0.3019994063
aF0.4158751633
aa(lp266
F-0.3975762345
aF-0.3847756414
aF0.0443035991
aF-1.0696861296
aF-0.6792479661
aF-0.7940045747
aF-0.0514578916
aF1.2090214318
aF-0.8998829662
aF-0.5847473456
aa(lp267
F-0.3975762345
aF-0.3847756414
aF0.0385868372
aF-0.7901926605
aF-0.6792479661
aF-0.5632168624
aF0.3378090604
aF0.4135409044
aF0.7827523553
aF0.5409529769
aa(lp268
F-0.1726180622
aF0.1505856386
aF0.0824153446
aF-1.2475456099
aF-1.1597982601
aF1.5138725487
aF0.4351257984
aF0.6124110362
aF0.7827523553
aF0.7660930414
aa(lp269
F-0.3456628102
aF-0.3847756414
aF0.0481147736
aF-1.2051981146
aF-1.1597982601
aF2.0331449014
aF0.5324425364
aF0.6124110362
aF2.6027456623
aF2.4421357439
aa(lp270
F0.0350356353
aF0.1505856386
aF0.1109991538
aF-1.2051981146
aF-1.48657246
aF0.7061155555
aF0.5324425364
aF0.5129759703
aF0.7827523553
aF0.7660930414
aa(lp271
F-0.2245314866
aF0.5074931585
aF0.091943281
aF-2.1453125106
aF-1.8614016892
aF0.0714493466
aF-1.7058424376
aF-1.8734656121
aF-0.590827499
aF-0.7098251593
aa(lp272
F-0.3456628102
aF1.0428544384
aF0.0481147736
aF-2.2384770003
aF-2.3419519831
aF-0.7940045747
aF-1.7058424376
aF1.3084564978
aF-0.8998829662
aF-1.2601675392
aa(lp273
F-0.2591404362
aF0.5074931585
aF0.0728874082
aF-2.0521480209
aF-1.9671227539
aF-0.33242915
aF0.9217094884
aF1.0101513
aF-0.590827499
aF-0.5847473456
aa(lp274
F-0.3975762345
aF1.0428544384
aF0.0385868372
aF-1.8150020471
aF-2.0728438185
aF1.1676909802
aF0.3378090604
aF0.2146707725
aF1.4008632898
aF1.1913576077
aa(lp275
F-0.2245314866
aF1.0428544384
aF0.1109991538
aF-1.391527094
aF-1.48657246
aF1.744660261
aF1.0190262264
aF1.1095863659
aF0.6110548735
aF1.1913576077
aa(lp276
F-0.3975762345
aF1.3997619584
aF0.0385868372
aF-1.391527094
aF-1.8037356539
aF0.6484186274
aF0.3378090604
aF-0.0836344253
aF-0.0070560609
aF-0.1344672166
aa(lp277
F-0.0860956883
aF1.3997619584
aF0.1300550266
aF-1.0188691352
aF-1.8037356539
aF2.0331449014
aF0.4351257984
aF0.8112811681
aF1.8472767424
aF1.8667778013
aa(lp278
F-0.3975762345
aF1.0428544384
aF0.0385868372
aF-2.1876600059
aF-2.0728438185
aF1.5138725487
aF0.4351257984
aF0.4135409044
aF0.6110548735
aF0.6410152278
aa(lp279
F-0.3975762345
aF0.5074931585
aF0.0385868372
aF-1.9505140321
aF-2.1208988479
aF2.0331449014
aF0.5324425364
aF0.4135409044
aF2.4653876769
aF2.4421357439
aa(lp280
F-0.3975762345
aF0.5074931585
aF0.0385868372
aF-1.2051981146
aF-1.6980145893
aF0.4176309151
aF0.0458588464
aF-0.0836344253
aF0.1646414209
aF0.1907350988
aa(lp281
F-0.3975762345
aF0.5074931585
aF0.0385868372
aF-1.0188691352
aF-0.5735269015
aF0.5330247712
aF0.5324425364
aF0.4135409044
aF0.4736968881
aF0.4158751633
aa(lp282
F0.3119072319
aF0.5074931585
aF0.0385868372
aF-0.7393756661
aF-0.9003011014
aF-1.1978830713
aF0.0458588464
aF0.0158006406
aF-0.7625249808
aF-0.4846850947
aa(lp283
F-0.2245314866
aF-0.3847756414
aF0.0385868372
aF-0.8325401558
aF-0.5735269015
aF-0.3901260781
aF0.6297592744
aF0.7118461022
aF-0.7625249808
aF-0.7098251593
aa(lp284
F-0.3975762345
aF-0.3847756414
aF0.0443035991
aF-1.3407100996
aF-1.3808513953
aF-0.6209137905
aF-1.8031591756
aF-1.9729006781
aF-1.071580448
aF-1.2601675392
aa(lp285
F-0.3975762345
aF-0.3847756414
aF0.0385868372
aF-1.391527094
aF-1.4289064247
aF-1.1978830713
aF-1.2192587476
aF-1.4757253484
aF-1.2089384334
aF-1.3602297901
aa(lp286
F2.5960979045
aF0.5074931585
aF0.6540915285
aF-1.4846915837
aF-1.1597982601
aF1.1676909802
aF-1.6085256996
aF-1.4757253484
aF0.9201103408
aF0.7660930414
aa(lp287
F-0.3975762345
aF3.719660838
aF0.0481147736
aF-1.7218375574
aF-1.9671227539
aF-0.2170352939
aF0.4351257984
aF0.5129759703
aF0.3019994063
aF0.4158751633
aa(lp288
F-0.3975762345
aF2.8273920382
aF0.0443035991
aF-1.8150020471
aF-1.6980145893
aF1.9177510453
aF0.5324425364
aF0.5129759703
aF1.4008632898
aF1.3164354214
aa(lp289
F-0.3975762345
aF2.2920307582
aF0.0385868372
aF-1.7641850528
aF-2.1208988479
aF-0.2747322219
aF0.4351257984
aF0.4135409044
aF-0.590827499
aF-0.5847473456
aa(lp290
F0.2599938076
aF2.2920307582
aF0.1300550266
aF-1.7218375574
aF-1.6980145893
aF-0.7940045747
aF0.6297592744
aF0.7118461022
aF-0.590827499
aF-0.7098251593
aa(lp291
F-0.3110538606
aF2.8273920382
aF0.0824153446
aF-1.6286730678
aF-1.48657246
aF0.4753278431
aF0.6297592744
aF0.6124110362
aF-0.4534695135
aF-0.3596072811
aa(lp292
F-0.2591404362
aF2.8273920382
aF0.0671706464
aF-1.8150020471
aF-1.640348554
aF-0.1016414377
aF0.9217094884
aF1.2090214318
aF-0.590827499
aF-0.5847473456
aa(lp293
F-0.3975762345
aF2.2920307582
aF0.0385868372
aF-1.4846915837
aF-2.3419519831
aF-0.6786107185
aF-0.8299917956
aF-0.3819396231
aF-1.2089384334
aF-1.0350274747
aa(lp294
F0.1215580092
aF2.2920307582
aF0.1300550266
aF-1.4338745893
aF-1.640348554
aF-0.5632168624
aF-1.5112089616
aF-1.6745954803
aF-0.2817720318
aF-0.4846850947
aa(lp295
F-0.3456628102
aF2.8273920382
aF0.0481147736
aF-1.1628506193
aF-0.8426350661
aF0.6484186274
aF0.5324425364
aF0.5129759703
aF0.7827523553
aF0.7660930414
aa(lp296
F0.0869490596
aF2.8273920382
aF0.1262438521
aF-1.2983626043
aF-1.1597982601
aF0.0714493466
aF0.5324425364
aF0.5129759703
aF-0.2817720318
aF-0.2595450302
aa(lp297
F-0.2591404362
aF3.1842995581
aF0.0728874082
aF-1.7641850528
aF-1.640348554
aF0.0137524185
aF1.0190262264
aF1.1095863659
aF-0.590827499
aF-0.5847473456
aa(lp298
F-0.3975762345
aF2.8273920382
aF0.0385868372
aF-1.391527094
aF-2.1785648832
aF-0.1016414377
aF-0.8299917956
aF-0.7796798869
aF-0.4534695135
aF-0.3596072811
aa(lp299
F-0.3110538606
aF2.2920307582
aF0.0728874082
aF-1.2051981146
aF-0.9483561308
aF1.5138725487
aF-0.4407248436
aF-0.3819396231
aF2.0189742242
aF1.8667778013
aa(lp300
F-0.3975762345
aF2.2920307582
aF0.0385868372
aF-0.315900713
aF-0.8426350661
aF0.4176309151
aF1.0190262264
aF1.1095863659
aF0.4736968881
aF0.991233106
aa(lp301
F2.630706854
aF1.0428544384
aF0.0385868372
aF-0.6462111764
aF-0.5254718721
aF-0.1593383658
aF-0.9273085336
aF-0.9785500187
aF-0.2817720318
aF-0.3596072811
aa(lp302
F0.1215580092
aF0.5074931585
aF0.0385868372
aF-0.4090652027
aF-0.2659747134
aF0.9946001959
aF0.2404923224
aF0.1152357065
aF1.229165808
aF1.0912953569
aa(lp303
F-0.3975762345
aF0.1505856386
aF0.0385868372
aF-0.5953941821
aF-0.1602536487
aF2.9562957508
aF0.4351257984
aF0.4135409044
aF3.529912064
aF3.5428205038
aa(lp304
F-0.3975762345
aF-0.3847756414
aF0.0385868372
aF-0.7901926605
aF-0.6311929368
aF1.5715694767
aF0.5324425364
aF0.5129759703
aF0.9201103408
aF1.0912953569
aa(lp305
F-0.3110538606
aF-0.3847756414
aF0.0671706464
aF-1.391527094
aF-1.0540771954
aF1.5715694767
aF0.6297592744
aF0.6124110362
aF1.229165808
aF1.1913576077
aa(lp306
F-0.2591404362
aF0.1505856386
aF0.0728874082
aF-1.6286730678
aF-1.1597982601
aF0.8215094117
aF0.4351257984
aF0.5129759703
aF0.3019994063
aF0.1907350988
aa(lp307
F-0.3110538606
aF0.1505856386
aF0.0728874082
aF-1.7641850528
aF-1.640348554
aF1.2830848363
aF0.6297592744
aF0.5129759703
aF0.9201103408
aF0.991233106
aa(lp308
F0.225384858
aF-0.3847756414
aF0.1452997249
aF-1.7641850528
aF-1.7460696187
aF1.6869633329
aF0.7270760124
aF0.6124110362
aF1.4008632898
aF1.8667778013
aa(lp309
F-0.3975762345
aF0.5074931585
aF0.0538315354
aF-1.9081665368
aF-2.0151777833
aF-0.3901260781
aF0.4351257984
aF0.5129759703
aF-0.7625249808
aF-0.7098251593
aa(lp310
F-0.3456628102
aF0.5074931585
aF0.0538315354
aF-0.8325401558
aF-1.48657246
aF-0.2170352939
aF1.2136597024
aF1.3084564978
aF-0.2817720318
aF-0.1344672166
aa(lp311
F-0.2591404362
aF0.5074931585
aF0.0633594718
aF-1.7218375574
aF-1.5922935246
aF0.1291462746
aF1.1163429644
aF1.1095863659
aF-0.4534695135
aF-0.5847473456
aa(lp312
F-0.3456628102
aF0.5074931585
aF0.0538315354
aF-2.0521480209
aF-2.0151777833
aF0.1868432027
aF1.1163429644
aF1.3084564978
aF-0.590827499
aF-0.5847473456
aa(lp313
F-0.2591404362
aF0.5074931585
aF0.0633594718
aF-1.8150020471
aF-2.1208988479
aF-1.2555799994
aF0.4351257984
aF0.5129759703
aF-1.2089384334
aF-1.3602297901
aa(lp314
F-0.2245314866
aF1.0428544384
aF0.1167159157
aF-1.6710205631
aF-2.0151777833
aF-0.7940045747
aF-1.9004759136
aF-1.8734656121
aF-0.2817720318
aF-0.3596072811
aa(lp315
F-0.3975762345
aF1.0428544384
aF0.0385868372
aF-1.4338745893
aF-2.5533941125
aF-0.7363076466
aF-1.0246252716
aF-1.0779850847
aF-0.590827499
aF-0.7098251593
aa(lp316
F-0.3975762345
aF0.5074931585
aF0.0385868372
aF-0.5022296924
aF-1.1597982601
aF-0.967095359
aF-0.1487746296
aF-0.1830694913
aF-0.590827499
aF-0.4846850947
aa(lp317
F-0.3975762345
aF0.1505856386
aF0.0443035991
aF-0.8833571502
aF-0.6792479661
aF-0.33242915
aF0.9217094884
aF0.910716234
aF-0.4534695135
aF-0.1344672166
aa(lp318
F-0.3975762345
aF-0.3847756414
aF0.0385868372
aF-0.9257046455
aF-1.006022166
aF1.2253879082
aF0.5324425364
aF0.5129759703
aF0.6110548735
aF0.4158751633
aa(lp319
F-0.3975762345
aF-0.3847756414
aF0.0385868372
aF-0.3667177074
aF-0.1602536487
aF0.7061155555
aF0.6297592744
aF0.4135409044
aF1.229165808
aF1.4164976723
aa(lp320
F-0.3975762345
aF-0.3847756414
aF0.0385868372
aF-0.0787547392
aF-0.054532584
aF-0.6209137905
aF0.5324425364
aF0.4135409044
aF0.3019994063
aF-0.0344049657
aa(lp321
F2.9421874003
aF-0.3847756414
aF0.7588988289
aF-0.6462111764
aF-1.3808513953
aF2.8985988227
aF-1.6085256996
aF-1.7740305462
aF2.7744431441
aF2.892415873
aa(lp322
F-0.1380091127
aF6.9318285176
aF0.091943281
aF-1.8150020471
aF-1.640348554
aF1.3407817644
aF0.8243927504
aF0.7118461022
aF0.7827523553
aF0.7660930414
aa(lp323
F-0.1380091127
aF6.0395597177
aF0.0385868372
aF-0.1295717336
aF-1.2174642954
aF1.052297124
aF0.3378090604
aF0.4135409044
aF1.229165808
aF1.4164976723
aa(lp324
F-0.3975762345
aF2.8273920382
aF0.0385868372
aF-0.5953941821
aF-0.8426350661
aF2.1485387576
aF0.8243927504
aF0.910716234
aF1.4008632898
aF1.4164976723
aa(lp325
F-0.3975762345
aF0.1505856386
aF0.0385868372
aF-1.5778560734
aF-1.4289064247
aF-0.0439445096
aF1.2136597024
aF1.2090214318
aF-0.0070560609
aF-0.0344049657
aa(lp326
F-0.3975762345
aF-0.3847756414
aF0.0385868372
aF-1.391527094
aF-1.5346274893
aF-0.7363076466
aF-1.8031591756
aF-1.6745954803
aF-0.7625249808
aF-0.9099496611
aa(lp327
F-0.3975762345
aF-0.3847756414
aF0.0385868372
aF-0.4598821971
aF-1.1597982601
aF-0.7940045747
aF-1.1219420096
aF-0.9785500187
aF-0.8998829662
aF-1.2601675392
aa(lp328
F0.969477274
aF-0.3847756414
aF0.0385868372
aF-0.2650837186
aF-0.371695778
aF0.9946001959
aF-0.1487746296
aF-0.1830694913
aF0.4736968881
aF0.6410152278
aa(lp329
F-0.2591404362
aF-0.3847756414
aF0.05764271
aF-0.6462111764
aF-0.371695778
aF2.2062356857
aF0.5324425364
aF0.3141058384
aF1.5382212752
aF1.5415754859
aa(lp330
F-0.3975762345
aF-0.3847756414
aF0.0443035991
aF-0.8325401558
aF-0.5254718721
aF0.3022370589
aF0.6297592744
aF0.8112811681
aF-0.2817720318
aF-0.2595450302
aa(lp331
F-0.2591404362
aF-0.3847756414
aF0.0385868372
aF-0.5530466868
aF-0.4197508074
aF1.744660261
aF0.6297592744
aF0.6124110362
aF1.5382212752
aF1.6416377368
aa(lp332
F-0.3975762345
aF-0.3847756414
aF0.0443035991
aF-1.2051981146
aF-1.0540771954
aF0.8215094117
aF0.8243927504
aF0.7118461022
aF0.1646414209
aF-0.0344049657
aa(lp333
F-0.3456628102
aF-0.3847756414
aF0.0671706464
aF-1.391527094
aF-1.2174642954
aF0.0714493466
aF0.5324425364
aF0.5129759703
aF-0.2817720318
aF-0.1344672166
aa(lp334
F-0.3975762345
aF-0.3847756414
aF0.0443035991
aF-0.8833571502
aF-1.1117432307
aF0.359933987
aF0.1431755844
aF0.1152357065
aF0.1646414209
aF-0.1344672166
aa(lp335
F-0.3975762345
aF-0.3847756414
aF0.0443035991
aF-1.4846915837
aF-1.2655193247
aF1.1099940521
aF1.0190262264
aF0.7118461022
aF0.3019994063
aF0.5409529769
aa(lp336
F-0.3975762345
aF-0.3847756414
aF0.0385868372
aF-0.5530466868
aF-1.32318536
aF-0.2747322219
aF0.0458588464
aF0.0158006406
aF-0.4534695135
aF-0.2595450302
aa(lp337
F0.1734714336
aF-0.3847756414
aF0.0385868372
aF0.0144097505
aF-0.054532584
aF1.2253879082
aF0.6297592744
aF0.6124110362
aF2.4653876769
aF2.3170579303
aa(lp338
F2.0250502363
aF-0.3847756414
aF0.2710684853
aF-0.8325401558
aF-0.4197508074
aF1.1676909802
aF-1.6085256996
aF-1.5751604143
aF1.4008632898
aF1.3164354214
aa(lp339
F0.9175638497
aF3.1842995581
aF0.2234288033
aF-0.7901926605
aF-0.5735269015
aF0.8792063397
aF-1.6085256996
aF-1.7740305462
aF1.229165808
aF1.0912953569
aa(lp340
F-0.3975762345
aF2.2920307582
aF0.0385868372
aF-0.4090652027
aF-0.9003011014
aF-1.4863677117
aF1.5056099164
aF1.3084564978
aF-1.2089384334
aF-1.2601675392
aa(lp341
F-0.3975762345
aF1.3997619584
aF0.0385868372
aF-0.1295717336
aF-0.6792479661
aF-0.3901260781
aF0.5324425364
aF0.5129759703
aF0.4736968881
aF0.6410152278
aa(lp342
F-0.3975762345
aF0.5074931585
aF0.0385868372
aF-0.315900713
aF-0.2659747134
aF0.4176309151
aF0.7270760124
aF0.8112811681
aF0.4736968881
aF0.1907350988
aa(lp343
F-0.3975762345
aF-0.3847756414
aF0.0385868372
aF-0.7393756661
aF-0.7369140014
aF-0.7940045747
aF-1.2192587476
aF-1.2768552165
aF-0.7625249808
aF-0.7098251593
aa(lp344
F1.8520054884
aF-0.3847756414
aF0.0385868372
aF-0.2227362233
aF-0.2083086781
aF1.5715694767
aF0.5324425364
aF0.4135409044
aF2.6027456623
aF2.7673380593
aa(lp345
F-0.3456628102
aF-0.3847756414
aF0.0443035991
aF-0.6462111764
aF-0.5254718721
aF2.0908418295
aF0.7270760124
aF0.7118461022
aF1.5382212752
aF1.5415754859
aa(lp346
F-0.3975762345
aF-0.3847756414
aF0.0385868372
aF-0.1719192289
aF-0.7369140014
aF-0.967095359
aF-1.7058424376
aF0.2146707725
aF-1.2089384334
aF-1.2601675392
aa(lp347
F2.2846173582
aF-0.3847756414
aF0.0385868372
aF-0.2227362233
aF-0.4678058368
aF0.0137524185
aF-0.8299917956
aF-0.8791149528
aF0.4736968881
aF0.5409529769
aa(lp348
F0.3984296059
aF-0.3847756414
aF0.0385868372
aF-0.2650837186
aF-0.1025876134
aF0.4176309151
aF0.7270760124
aF0.7118461022
aF1.229165808
aF1.0912953569
aa(lp349
F-0.3975762345
aF-0.3847756414
aF0.0385868372
aF-0.3667177074
aF-0.4197508074
aF-0.2747322219
aF0.9217094884
aF1.3084564978
aF-0.4534695135
aF-0.2595450302
aa(lp350
F-0.0860956883
aF-0.3847756414
aF0.0385868372
aF0.7173781727
aF-0.1602536487
aF1.744660261
aF0.4351257984
aF0.2146707725
aF1.8472767424
aF1.6416377368
aa(lp351
F-0.3110538606
aF-0.3847756414
aF0.0385868372
aF0.0567572458
aF0.0031334512
aF-1.024792287
aF-1.6085256996
aF-1.8734656121
aF-1.071580448
aF-1.2601675392
aa(lp352
F-0.3975762345
aF-0.3847756414
aF0.0385868372
aF0.2939032195
aF-0.054532584
aF-0.33242915
aF-1.2192587476
aF-1.3762902825
aF-0.4534695135
aF-0.5847473456
aa(lp353
F-0.1726180622
aF-0.3847756414
aF0.0385868372
aF1.1916701202
aF0.4260177099
aF0.0137524185
aF0.6297592744
aF0.5129759703
aF0.4736968881
aF0.1907350988
aa(lp354
F0.6060833034
aF-0.3847756414
aF0.0385868372
aF1.1916701202
aF0.5317387746
aF0.9946001959
aF0.2404923224
aF0.2146707725
aF2.0189742242
aF1.6416377368
aa(lp355
F1.1771309715
aF-0.3847756414
aF0.0481147736
aF-0.3667177074
aF-0.7369140014
aF1.2253879082
aF0.8243927504
aF0.8112811681
aF0.9201103408
aF0.6410152278
aa(lp356
F-0.3975762345
aF-0.3847756414
aF0.0385868372
aF-0.8833571502
aF-0.7849690308
aF-0.1016414377
aF1.0190262264
aF1.1095863659
aF-0.2817720318
aF-0.1344672166
aa(lp357
F-0.3975762345
aF-0.3847756414
aF0.0385868372
aF0.0567572458
aF-0.6311929368
aF0.4176309151
aF-0.4407248436
aF-0.4813746891
aF-0.2817720318
aF-0.1344672166
aa(lp358
F-0.3975762345
aF-0.3847756414
aF0.0385868372
aF0.3447202139
aF0.1665205512
aF-0.1593383658
aF-1.9004759136
aF1.5073266296
aF-0.2817720318
aF-0.4846850947
aa(lp359
F-0.3975762345
aF-0.3847756414
aF0.0385868372
aF-0.315900713
aF-0.2659747134
aF-0.3901260781
aF-1.7058424376
aF-1.9729006781
aF-0.590827499
aF-0.4846850947
aa(lp360
F-0.3975762345
aF-0.3847756414
aF0.0385868372
aF0.5818661877
aF-0.4197508074
aF-1.1978830713
aF-1.8031591756
aF-0.8791149528
aF-1.2089384334
aF-1.2601675392
aa(lp361
F-0.3975762345
aF-0.3847756414
aF0.0385868372
aF0.9545241464
aF0.2145755806
aF-0.7940045747
aF0.0458588464
aF-0.0836344253
aF-0.8998829662
aF-0.9099496611
aa(lp362
F0.9175638497
aF-0.3847756414
aF0.0385868372
aF0.2515557242
aF0.1665205512
aF0.4176309151
aF0.8243927504
aF0.7118461022
aF0.4736968881
aF0.4158751633
aa(lp363
F0.6060833034
aF-0.3847756414
aF0.0385868372
aF-0.4598821971
aF-0.054532584
aF1.1099940521
aF1.0190262264
aF0.910716234
aF0.3019994063
aF0.3158129124
aa(lp364
F-0.3975762345
aF-0.3847756414
aF0.0385868372
aF-0.1295717336
aF-0.3140297428
aF-0.2747322219
aF1.4082931784
aF1.2090214318
aF-0.4534695135
aF-0.0344049657
aa(lp365
F0.3465161815
aF-0.3847756414
aF0.0385868372
aF0.2939032195
aF-0.054532584
aF0.3022370589
aF0.5324425364
aF0.5129759703
aF0.3019994063
aF0.4158751633
aa(lp366
F-0.2591404362
aF-0.3847756414
aF0.0385868372
aF-0.315900713
aF0.0511884806
aF0.4176309151
aF0.9217094884
aF1.1095863659
aF0.3019994063
aF0.3158129124
aa(lp367
F-0.3975762345
aF-0.3847756414
aF0.0385868372
aF-0.1295717336
aF0.0031334512
aF-0.5055199343
aF-1.6085256996
aF-1.8734656121
aF-0.590827499
aF-0.2595450302
aa(lp368
F-0.3975762345
aF-0.3847756414
aF0.0385868372
aF0.0144097505
aF-0.371695778
aF-0.1016414377
aF-1.7058424376
aF-1.5751604143
aF0.4736968881
aF0.3158129124
aa(lp369
F1.1771309715
aF-0.3847756414
aF0.0385868372
aF-0.0364072439
aF0.4260177099
aF1.8600541172
aF-0.4407248436
aF-0.6802448209
aF1.4008632898
aF1.4164976723
aa(lp370
F2.7691426524
aF-0.3847756414
aF0.0385868372
aF-0.1719192289
aF0.4260177099
aF0.0714493466
aF-0.7326750576
aF-0.7796798869
aF-0.4534695135
aF-0.3596072811
aa(lp371
F-0.3456628102
aF-0.3847756414
aF0.0385868372
aF0.1583912345
aF0.6470708451
aF0.5907216993
aF0.3378090604
aF0.7118461022
aF0.6110548735
aF0.6410152278
aa(lp372
F-0.3456628102
aF-0.3847756414
aF0.0385868372
aF-0.0364072439
aF0.4260177099
aF1.744660261
aF0.3378090604
aF0.3141058384
aF1.5382212752
aF1.3164354214
aa(lp373
F-0.1726180622
aF-0.3847756414
aF0.0385868372
aF0.1075742402
aF0.4260177099
aF-0.0439445096
aF0.6297592744
aF0.6124110362
aF0.7827523553
aF1.1913576077
aa(lp374
F-0.3975762345
aF-0.3847756414
aF0.0385868372
aF0.0144097505
aF0.2722416158
aF2.1485387576
aF0.8243927504
aF0.8112811681
aF2.0189742242
aF2.0919178658
aa(lp375
F-0.3975762345
aF-0.3847756414
aF0.0385868372
aF0.1075742402
aF0.0031334512
aF-0.1016414377
aF1.2136597024
aF1.0101513
aF-0.2817720318
aF-0.3596072811
aa(lp376
F-0.3975762345
aF-0.3847756414
aF0.0385868372
aF0.1075742402
aF0.3202966452
aF-0.6786107185
aF1.4082931784
aF-1.9729006781
aF-0.2817720318
aF-0.0344049657
aa(lp377
F-0.3975762345
aF-0.3847756414
aF0.0385868372
aF0.2007387298
aF0.1088545159
aF-0.2747322219
aF-1.7058424376
aF-1.4757253484
aF-0.590827499
aF-0.9099496611
aa(lp378
F-0.1726180622
aF-0.3847756414
aF0.0385868372
aF0.6750306774
aF0.6470708451
aF-0.5055199343
aF-1.8031591756
aF-1.2768552165
aF-0.590827499
aF-0.5847473456
aa(lp379
F0.1734714336
aF-0.3847756414
aF0.0385868372
aF1.428816094
aF0.7527919098
aF-0.5055199343
aF0.7270760124
aF0.7118461022
aF2.0189742242
aF2.4421357439
aa(lp380
F-0.3456628102
aF-0.3847756414
aF0.0385868372
aF0.6750306774
aF0.6951258745
aF1.5138725487
aF0.5324425364
aF0.5129759703
aF1.8472767424
aF1.6416377368
aa(lp381
F-0.3975762345
aF-0.3847756414
aF0.0385868372
aF0.8105426624
aF0.3202966452
aF-0.4478230062
aF0.8243927504
aF0.5129759703
aF-0.4534695135
aF-0.5847473456
aa(lp382
F-0.3975762345
aF-0.3847756414
aF0.0385868372
aF1.1408531258
aF0.8008469392
aF-1.1978830713
aF-1.6085256996
aF-1.7740305462
aF-1.071580448
aF-1.1350897256
aa(lp383
F0.3465161815
aF-0.3847756414
aF0.0385868372
aF1.428816094
aF1.0122890685
aF-0.967095359
aF1.4082931784
aF1.4078915637
aF-0.7625249808
aF-1.0350274747
aa(lp384
F0.5714743538
aF-0.3847756414
aF0.0385868372
aF1.1408531258
aF1.1756761684
aF-0.2170352939
aF-1.5112089616
aF-1.6745954803
aF-0.2817720318
aF-0.4846850947
aa(lp385
F1.5751338917
aF-0.3847756414
aF0.0385868372
aF1.1408531258
aF0.8008469392
aF0.9946001959
aF-0.4407248436
aF-0.4813746891
aF0.7827523553
aF1.0912953569
aa(lp386
F6.3684734091
aF-0.3847756414
aF0.0385868372
aF-0.1295717336
aF0.3779626805
aF-0.1593383658
aF0.8243927504
aF0.6124110362
aF-0.4534695135
aF-0.5847473456
aa(lp387
F-0.2591404362
aF-0.3847756414
aF0.0385868372
aF0.0144097505
aF0.1665205512
aF-0.6209137905
aF0.4351257984
aF0.6124110362
aF-0.7625249808
aF-0.7098251593
aa(lp388
F-0.1380091127
aF-0.3847756414
aF0.0385868372
aF0.2007387298
aF0.2145755806
aF-0.7940045747
aF0.6297592744
aF0.6124110362
aF-0.4534695135
aF-0.4846850947
aa(lp389
F-0.3110538606
aF-0.3847756414
aF0.0385868372
aF0.624213683
aF0.2145755806
aF-0.2170352939
aF0.5324425364
aF0.7118461022
aF-0.2817720318
aF-0.0344049657
aa(lp390
F-0.3975762345
aF-0.3847756414
aF0.0385868372
aF0.7681951671
aF0.3779626805
aF-1.4286707836
aF-1.7058424376
aF-1.6745954803
aF-1.071580448
aF-1.2601675392
aa(lp391
F-0.3975762345
aF-0.3847756414
aF0.0385868372
aF0.7681951671
aF0.9642340391
aF-1.0824892151
aF0.2404923224
aF0.2146707725
aF-0.8998829662
aF-1.0350274747
aa(lp392
F0.7964325261
aF-0.3847756414
aF0.0385868372
aF0.8105426624
aF0.8585129744
aF-0.2747322219
aF0.6297592744
aF0.6124110362
aF0.3019994063
aF0.3158129124
aa(lp393
F0.2599938076
aF-0.3847756414
aF0.0385868372
aF0.0567572458
aF0.6951258745
aF0.1868432027
aF0.5324425364
aF0.4135409044
aF-0.590827499
aF-0.5847473456
aa(lp394
F-0.3975762345
aF-0.3847756414
aF0.0385868372
aF0.8613596568
aF0.5894048098
aF-0.33242915
aF1.3109764404
aF1.4078915637
aF-0.590827499
aF-0.2595450302
aa(lp395
F-0.3975762345
aF-0.3847756414
aF0.0385868372
aF1.0053411408
aF0.5317387746
aF-0.1593383658
aF0.4351257984
aF0.3141058384
aF-0.590827499
aF-0.2595450302
aa(lp396
F-0.3975762345
aF-0.3847756414
aF0.0385868372
aF1.1916701202
aF1.0122890685
aF0.8215094117
aF0.5324425364
aF0.4135409044
aF0.7827523553
aF0.7660930414
aa(lp397
F-0.3975762345
aF-0.3847756414
aF0.0385868372
aF1.2340176155
aF1.2813972331
aF0.0714493466
aF0.6297592744
aF0.4135409044
aF-0.0070560609
aF-0.1344672166
aa(lp398
F-0.3975762345
aF-0.3847756414
aF0.0385868372
aF0.5310491933
aF0.8008469392
aF0.6484186274
aF-1.5112089616
aF-1.3762902825
aF-0.4534695135
aF-0.4846850947
aa(lp399
F-0.3975762345
aF-0.3847756414
aF0.0385868372
aF0.4378847036
aF0.6470708451
aF-0.967095359
aF-1.7058424376
aF-0.7796798869
aF-1.071580448
aF-1.1350897256
aa(lp400
F-0.3975762345
aF-0.3847756414
aF0.0385868372
aF0.8105426624
aF0.4260177099
aF-1.024792287
aF-1.8031591756
aF-1.8734656121
aF-0.7625249808
aF-0.9099496611
aa(lp401
F-0.3975762345
aF-0.3847756414
aF0.0385868372
aF0.6750306774
aF0.5317387746
aF-1.0824892151
aF-1.6085256996
aF-1.4757253484
aF-0.2817720318
aF-0.1344672166
aa(lp402
F-0.3975762345
aF-0.3847756414
aF0.0385868372
aF1.1916701202
aF0.4836837452
aF-1.024792287
aF0.1431755844
aF0.1152357065
aF-0.8998829662
aF-1.0350274747
aa(lp403
F-0.3975762345
aF-0.3847756414
aF0.0385868372
aF1.428816094
aF1.2813972331
aF0.0137524185
aF0.0458588464
aF0.1152357065
aF-0.590827499
aF-0.5847473456
aa(lp404
F1.2809578203
aF-0.3847756414
aF0.0385868372
aF1.2340176155
aF0.9642340391
aF0.5330247712
aF0.2404923224
aF0.2146707725
aF0.9201103408
aF0.6410152278
aa(lp405
F-0.3975762345
aF-0.3847756414
aF0.0385868372
aF0.7681951671
aF0.7527919098
aF-0.33242915
aF0.4351257984
aF0.7118461022
aF-0.4534695135
aF-0.3596072811
aa(lp406
F-0.3975762345
aF-0.3847756414
aF0.0385868372
aF0.3870677092
aF0.5317387746
aF-0.2747322219
aF1.2136597024
aF1.2090214318
aF-0.2817720318
aF-0.4846850947
aa(lp407
F-0.3975762345
aF-0.3847756414
aF0.0385868372
aF0.8105426624
aF0.6470708451
aF-0.4478230062
aF1.3109764404
aF1.3084564978
aF-0.2817720318
aF-0.4846850947
aa(lp408
F-0.3975762345
aF-0.3847756414
aF0.0385868372
aF1.0476886361
aF0.5317387746
aF-1.024792287
aF-1.9004759136
aF-1.5751604143
aF-1.071580448
aF-0.7098251593
aa(lp409
F0.225384858
aF-0.3847756414
aF0.0385868372
aF1.1408531258
aF0.7527919098
aF-0.7940045747
aF1.4082931784
aF1.0101513
aF-0.0070560609
aF-0.1344672166
aa(lp410
F-0.3975762345
aF-0.3847756414
aF0.0385868372
aF0.9037071521
aF1.0699551038
aF-0.5632168624
aF-1.8031591756
aF-1.5751604143
aF-0.2817720318
aF-0.4846850947
aa(lp411
F-0.3975762345
aF-0.3847756414
aF0.0385868372
aF0.9037071521
aF1.127621139
aF-0.7940045747
aF-1.6085256996
aF-1.5751604143
aF-0.7625249808
aF-0.9099496611
aa(lp412
F-0.3975762345
aF-0.3847756414
aF0.0385868372
aF1.2848346099
aF1.444784333
aF-0.1016414377
aF-0.3434081056
aF-0.2825045572
aF-0.2817720318
aF-0.3596072811
aa(lp413
F-0.1726180622
aF-0.3847756414
aF0.0385868372
aF1.0476886361
aF1.4928393624
aF0.1868432027
aF-0.0514578916
aF0.0158006406
aF0.3019994063
aF0.3158129124
aa(lp414
F-0.2591404362
aF-0.3847756414
aF0.0385868372
aF1.1916701202
aF0.9642340391
aF-0.1593383658
aF0.7270760124
aF0.6124110362
aF0.4736968881
aF0.1907350988
aa(lp415
F-0.3975762345
aF-0.3847756414
aF0.0385868372
aF0.5310491933
aF0.8008469392
aF0.1291462746
aF0.9217094884
aF0.8112811681
aF-0.0070560609
aF-0.1344672166
aa(lp416
F-0.3975762345
aF-0.3847756414
aF0.0385868372
aF0.6750306774
aF0.5894048098
aF-1.024792287
aF-1.6085256996
aF-1.6745954803
aF-1.071580448
aF-1.0350274747
aa(lp417
F-0.3975762345
aF-0.3847756414
aF0.0385868372
aF1.428816094
aF0.7527919098
aF-1.024792287
aF0.7270760124
aF0.7118461022
aF-0.4534695135
aF-0.3596072811
aa(lp418
F1.3155667699
aF-0.3847756414
aF0.0385868372
aF1.564328079
aF1.2813972331
aF-0.1593383658
aF0.1431755844
aF0.1152357065
aF2.3280296914
aF2.2169956794
aa(lp419
F-0.3975762345
aF-0.3847756414
aF0.0385868372
aF0.9545241464
aF1.4928393624
aF-0.33242915
aF0.7270760124
aF0.910716234
aF-0.590827499
aF-0.3596072811
aa(lp420
F-0.3975762345
aF-0.3847756414
aF0.0385868372
aF0.8613596568
aF0.7527919098
aF-0.5632168624
aF-1.6085256996
aF-1.7740305462
aF-0.590827499
aF-0.7098251593
aa(lp421
F-0.3975762345
aF-0.3847756414
aF0.0385868372
aF0.6750306774
aF0.4836837452
aF-1.2555799994
aF-1.9004759136
aF-1.6745954803
aF-1.071580448
aF-0.7098251593
aa(lp422
F-0.3975762345
aF-0.3847756414
aF0.0385868372
aF0.8613596568
aF0.5894048098
aF-1.3709738555
aF-1.7058424376
aF-1.5751604143
aF-0.7625249808
aF-0.9099496611
aa(lp423
F-0.3975762345
aF-0.3847756414
aF0.0385868372
aF1.0476886361
aF0.6951258745
aF-1.1978830713
aF-1.6085256996
aF-0.6802448209
aF-0.7625249808
aF-0.7098251593
aa(lp424
F-0.3975762345
aF-0.3847756414
aF0.0385868372
aF1.3779990996
aF0.8008469392
aF-0.7940045747
aF-0.0514578916
aF-0.0836344253
aF-0.8998829662
aF-0.4846850947
aa(lp425
F2.6826202784
aF-0.3847756414
aF0.0385868372
aF1.4711635893
aF1.6562264624
aF0.1868432027
aF0.3378090604
aF0.2146707725
aF2.3280296914
aF2.0919178658
aa(lp426
F0.5714743538
aF-0.3847756414
aF0.0385868372
aF0.8105426624
aF1.4928393624
aF-0.7940045747
aF-1.6085256996
aF-1.6745954803
aF-0.8998829662
aF-1.1350897256
aa(lp427
F-0.3975762345
aF-0.3847756414
aF0.0385868372
aF1.0476886361
aF1.2813972331
aF-1.024792287
aF-1.7058424376
aF-1.9729006781
aF-1.071580448
aF-0.9099496611
aa(lp428
F-0.3975762345
aF-0.3847756414
aF0.0385868372
aF1.2848346099
aF1.127621139
aF-1.3132769275
aF-1.9004759136
aF-1.9729006781
aF-0.7625249808
aF-1.0350274747
aa(lp429
F-0.3975762345
aF-0.3847756414
aF0.0385868372
aF1.4711635893
aF1.1756761684
aF-1.024792287
aF-0.6353583196
aF-0.0836344253
aF-0.8998829662
aF-0.7098251593
aa(lp430
F0.2599938076
aF-0.3847756414
aF0.0385868372
aF1.428816094
aF1.761947527
aF-0.2747322219
aF0.3378090604
aF0.3141058384
aF-0.590827499
aF-0.5847473456
aa(lp431
F-0.3975762345
aF-0.3847756414
aF0.0385868372
aF1.564328079
aF1.761947527
aF-0.3901260781
aF0.2404923224
aF0.2146707725
aF-0.7625249808
aF-1.0350274747
aa(lp432
F-0.3456628102
aF-0.3847756414
aF0.0385868372
aF1.5219805837
aF1.8676685917
aF0.8792063397
aF0.4351257984
aF0.3141058384
aF1.5382212752
aF1.3164354214
aa(lp433
F-0.3110538606
aF-0.3847756414
aF0.0385868372
aF1.4711635893
aF1.608171433
aF-0.33242915
aF0.7270760124
aF0.7118461022
aF0.1646414209
aF0.1907350988
aa(lp434
F1.4886115178
aF-0.3847756414
aF0.0385868372
aF0.8613596568
aF1.2333422037
aF-1.3709738555
aF0.9217094884
aF0.910716234
aF-0.4534695135
aF-0.3596072811
aa(lp435
F-0.3975762345
aF-0.3847756414
aF0.0385868372
aF0.7681951671
aF1.0122890685
aF0.4176309151
aF1.3109764404
aF1.0101513
aF-0.0070560609
aF-0.1344672166
aa(lp436
F-0.3975762345
aF-0.3847756414
aF0.0385868372
aF1.0985056305
aF0.6951258745
aF0.1291462746
aF0.6297592744
aF0.6124110362
aF-0.0070560609
aF0.1907350988
aa(lp437
F-0.3975762345
aF-0.3847756414
aF0.0385868372
aF1.2340176155
aF0.8585129744
aF0.3022370589
aF0.4351257984
aF0.7118461022
aF-0.0070560609
aF-0.2595450302
aa(lp438
F1.6616562657
aF-0.3847756414
aF0.0385868372
aF1.0985056305
aF1.3871182978
aF1.1099940521
aF0.2404923224
aF0.3141058384
aF0.9201103408
aF1.0912953569
aa(lp439
F4.1361961609
aF-0.3847756414
aF0.0385868372
aF1.1916701202
aF1.4928393624
aF0.8215094117
aF0.4351257984
aF0.3141058384
aF1.5382212752
aF1.8667778013
aa(lp440
F-0.3975762345
aF-0.3847756414
aF0.0385868372
aF0.7681951671
aF1.127621139
aF-0.6786107185
aF0.7270760124
aF0.8112811681
aF0.1646414209
aF0.3158129124
aa(lp441
F-0.3975762345
aF-0.3847756414
aF0.0385868372
aF0.8105426624
aF0.7527919098
aF-1.3709738555
aF-1.8031591756
aF-1.7740305462
aF-0.7625249808
aF-0.4846850947
aa(lp442
F-0.3975762345
aF-0.3847756414
aF0.0385868372
aF1.0476886361
aF0.7527919098
aF-1.2555799994
aF1.5056099164
aF-1.8734656121
aF-0.8998829662
aF-0.9099496611
aa(lp443
F-0.3975762345
aF-0.3847756414
aF0.0385868372
aF1.3271821052
aF1.127621139
aF-1.0824892151
aF-1.8031591756
aF-1.9729006781
aF-1.2089384334
aF-1.2601675392
aa(lp444
F1.4020891438
aF-0.3847756414
aF0.0385868372
aF1.0476886361
aF1.5505053977
aF-0.0439445096
aF0.0458588464
aF0.0158006406
aF0.1646414209
aF0.1907350988
aa(lp445
F-0.3975762345
aF-0.3847756414
aF0.0385868372
aF1.0053411408
aF1.3871182978
aF-1.1978830713
aF-1.6085256996
aF-1.6745954803
aF-0.8998829662
aF-1.1350897256
aa(lp446
F3.4267126945
aF-0.3847756414
aF0.0385868372
aF1.0476886361
aF1.127621139
aF-0.33242915
aF0.5324425364
aF0.6124110362
aF0.4736968881
aF0.5409529769
aa(lp447
F-0.3975762345
aF-0.3847756414
aF0.0385868372
aF0.8105426624
aF1.0122890685
aF0.0714493466
aF0.4351257984
aF0.4135409044
aF-0.2817720318
aF-0.0344049657
aa(lp448
F-0.3975762345
aF-0.3847756414
aF0.0385868372
aF0.8613596568
aF0.8008469392
aF-0.7363076466
aF0.7270760124
aF0.910716234
aF-0.8998829662
aF-1.0350274747
aa(lp449
F-0.3975762345
aF-0.3847756414
aF0.0385868372
aF0.9545241464
aF0.7527919098
aF-1.1401861432
aF-1.8031591756
aF-1.7740305462
aF-1.2089384334
aF-1.2601675392
aa(lp450
F0.2599938076
aF-0.3847756414
aF0.0385868372
aF0.9037071521
aF1.0122890685
aF-1.5440646398
aF0.1431755844
aF0.1152357065
aF-1.2089384334
aF-1.2601675392
aa(lp451
F0.8310414757
aF-0.3847756414
aF0.0385868372
aF1.0476886361
aF1.3390632684
aF-1.1978830713
aF-0.1487746296
aF-0.1830694913
aF-0.8998829662
aF-1.0350274747
aa(lp452
F-0.3975762345
aF-0.3847756414
aF0.0385868372
aF1.2848346099
aF1.3871182978
aF-1.2555799994
aF-1.6085256996
aF-1.6745954803
aF-0.7625249808
aF-1.0350274747
aa(lp453
F-0.3975762345
aF-0.3847756414
aF0.0385868372
aF1.4711635893
aF1.2813972331
aF-1.5440646398
aF0.2404923224
aF0.1152357065
aF-1.2089384334
aF-1.2601675392
aa(lp454
F-0.3975762345
aF-0.3847756414
aF0.0385868372
aF1.1916701202
aF1.444784333
aF-0.0439445096
aF1.0190262264
aF1.1095863659
aF-0.0070560609
aF-0.1344672166
aa(lp455
F-0.3975762345
aF-0.3847756414
aF0.0385868372
aF0.7173781727
aF0.9065680038
aF-0.1593383658
aF-1.7058424376
aF-1.6745954803
aF-0.590827499
aF-0.2595450302
aa(lp456
F-0.3975762345
aF-0.3847756414
aF0.0385868372
aF1.0053411408
aF0.6951258745
aF-0.7363076466
aF0.4351257984
aF0.7118461022
aF-1.071580448
aF-0.9099496611
aa(lp457
F-0.3975762345
aF-0.3847756414
aF0.0385868372
aF1.1916701202
aF0.9642340391
aF-0.7940045747
aF0.2404923224
aF0.2146707725
aF-0.7625249808
aF-0.9099496611
aa(lp458
F5.8493391653
aF-0.3847756414
aF0.0385868372
aF1.2340176155
aF1.444784333
aF0.1291462746
aF-1.7058424376
aF-1.7740305462
aF-0.2817720318
aF-0.4846850947
aa(lp459
F10.2446757625
aF-0.3847756414
aF0.0385868372
aF0.4802321989
aF0.9642340391
aF0.5907216993
aF-1.8031591756
aF-1.6745954803
aF0.9201103408
aF0.991233106
aa(lp460
F-0.3975762345
aF-0.3847756414
aF0.0385868372
aF0.624213683
aF0.8585129744
aF-0.9093984309
aF1.1163429644
aF0.910716234
aF-1.5179939006
aF-1.1350897256
aa(lp461
F-0.3456628102
aF-0.3847756414
aF0.0385868372
aF0.8105426624
aF0.9642340391
aF-0.6786107185
aF1.2136597024
aF1.2090214318
aF-0.590827499
aF-0.7098251593
aa(lp462
F0.3984296059
aF-0.3847756414
aF0.0385868372
aF0.9037071521
aF1.0699551038
aF-0.33242915
aF1.5056099164
aF1.5073266296
aF-0.2817720318
aF-0.4846850947
aa(lp463
F0.7445191017
aF-0.3847756414
aF0.0385868372
aF1.2340176155
aF1.127621139
aF-0.7940045747
aF0.4351257984
aF0.5129759703
aF2.4653876769
aF2.7673380593
aa(lp464
F-0.0514867387
aF-0.3847756414
aF0.0385868372
aF1.2340176155
aF1.2813972331
aF-1.2555799994
aF-0.7326750576
aF-0.6802448209
aF-0.2817720318
aF-0.2595450302
aa(lp465
F0.7964325261
aF-0.3847756414
aF0.0385868372
aF0.8105426624
aF1.3871182978
aF-1.4286707836
aF1.5056099164
aF1.5073266296
aF-1.5179939006
aF-1.3602297901
aa(lp466
F0.7099101521
aF-0.3847756414
aF0.0385868372
aF1.1916701202
aF1.2813972331
aF-1.2555799994
aF1.2136597024
aF1.2090214318
aF-0.7625249808
aF-0.7098251593
aa(lp467
F-0.3975762345
aF-0.3847756414
aF0.0385868372
aF0.9037071521
aF1.1756761684
aF-1.2555799994
aF0.8243927504
aF1.1095863659
aF-1.071580448
aF-1.1350897256
aa(lp468
F-0.3975762345
aF-0.3847756414
aF0.0385868372
aF0.8613596568
aF1.0699551038
aF-1.0824892151
aF-1.9004759136
aF1.3084564978
aF-0.8998829662
aF-0.5847473456
aa(lp469
F-0.3975762345
aF-0.3847756414
aF-19.0153803702
aF0.9037071521
aF0.9642340391
aF-0.7363076466
aF1.3109764404
aF1.4078915637
aF-0.7625249808
aF-0.7098251593
aa(lp470
F-0.3975762345
aF-0.3847756414
aF0.0385868372
aF0.9545241464
aF0.8008469392
aF-1.1978830713
aF-1.7058424376
aF-1.9729006781
aF-1.2089384334
aF-1.2601675392
aa(lp471
F-0.3975762345
aF-0.3847756414
aF0.0385868372
aF1.0985056305
aF0.8008469392
aF-1.3132769275
aF-1.6085256996
aF-1.6745954803
aF-1.2089384334
aF-1.2601675392
aa(lp472
F-0.3975762345
aF-0.3847756414
aF0.0385868372
aF1.1916701202
aF0.9065680038
aF-1.3132769275
aF-1.8031591756
aF-1.9729006781
aF-0.590827499
aF-0.7098251593
aa(lp473
F-0.3975762345
aF-0.3847756414
aF0.0385868372
aF1.2340176155
aF1.127621139
aF-0.1593383658
aF-0.3434081056
aF-0.3819396231
aF-0.0070560609
aF-0.1344672166
aa(lp474
F3.9458469382
aF-0.3847756414
aF0.0385868372
aF0.9545241464
aF1.444784333
aF0.4176309151
aF-0.3434081056
aF-0.2825045572
aF0.1646414209
aF-0.0344049657
aa(lp475
F0.2599938076
aF-0.3847756414
aF0.0385868372
aF0.8105426624
aF0.8008469392
aF0.4176309151
aF0.4351257984
aF0.910716234
aF0.3019994063
aF0.5409529769
aa(lp476
F-0.3975762345
aF-0.3847756414
aF0.0385868372
aF0.4802321989
aF0.7527919098
aF0.4176309151
aF0.5324425364
aF0.7118461022
aF-0.0070560609
aF0.7660930414
aa(lp477
F-0.3456628102
aF-0.3847756414
aF0.0385868372
aF0.7173781727
aF0.8008469392
aF0.5330247712
aF0.6297592744
aF0.8112811681
aF0.1646414209
aF-0.0344049657
aa(lp478
F0.0869490596
aF-0.3847756414
aF0.0385868372
aF0.624213683
aF0.6951258745
aF0.1291462746
aF0.4351257984
aF0.4135409044
aF0.1646414209
aF-0.0344049657
aa(lp479
F-0.3975762345
aF-0.3847756414
aF0.0385868372
aF0.6750306774
aF1.127621139
aF-0.6209137905
aF1.4082931784
aF1.1095863659
aF-0.590827499
aF-0.4846850947
aa(lp480
F-0.3975762345
aF-0.3847756414
aF0.0385868372
aF0.7173781727
aF0.8008469392
aF-1.1401861432
aF-1.7058424376
aF-1.9729006781
aF-1.2089384334
aF-1.2601675392
aa(lp481
F-0.3975762345
aF-0.3847756414
aF0.0385868372
aF1.0476886361
aF0.5894048098
aF-1.1401861432
aF-1.8031591756
aF-1.8734656121
aF-0.8998829662
aF-1.1350897256
aa(lp482
F-0.3975762345
aF-0.3847756414
aF0.0385868372
aF1.0476886361
aF1.1756761684
aF-1.5440646398
aF-0.6353583196
aF-0.8791149528
aF-1.071580448
aF-1.1350897256
aa(lp483
F-0.3975762345
aF-0.3847756414
aF0.0385868372
aF1.1408531258
aF1.3871182978
aF-1.024792287
aF-1.7058424376
aF1.4078915637
aF-0.7625249808
aF-0.2595450302
aa(lp484
F-0.3975762345
aF-0.3847756414
aF0.0385868372
aF1.1408531258
aF1.3390632684
aF-0.8517015028
aF-1.5112089616
aF-1.4757253484
aF-0.7625249808
aF-0.9099496611
aa(lp485
F-0.3975762345
aF-0.3847756414
aF0.0385868372
aF1.0053411408
aF1.3390632684
aF-0.5055199343
aF-1.0246252716
aF-1.0779850847
aF-0.7625249808
aF-0.9099496611
aa(lp486
F-0.3975762345
aF-0.3847756414
aF0.0385868372
aF1.0985056305
aF1.127621139
aF-1.024792287
aF-1.8031591756
aF-1.6745954803
aF-1.071580448
aF-0.9099496611
aa(lp487
F-0.3975762345
aF-0.3847756414
aF0.0385868372
aF1.2340176155
aF1.0699551038
aF-1.3132769275
aF-0.4407248436
aF-0.4813746891
aF-1.2089384334
aF-1.3602297901
aa(lp488
F-0.3975762345
aF-0.3847756414
aF0.0385868372
aF1.428816094
aF1.2333422037
aF-0.5055199343
aF0.4351257984
aF-0.3819396231
aF-0.7625249808
aF-0.9099496611
aa(lp489
F-0.3110538606
aF-0.3847756414
aF0.0385868372
aF1.0053411408
aF1.0699551038
aF-0.5632168624
aF1.4082931784
aF0.8112811681
aF-0.590827499
aF-0.3596072811
aa(lp490
F-0.3975762345
aF-0.3847756414
aF0.0385868372
aF0.624213683
aF0.7527919098
aF-0.2170352939
aF1.3109764404
aF1.1095863659
aF0.1646414209
aF0.4158751633
aa(lp491
F-0.3975762345
aF-0.3847756414
aF0.0385868372
aF0.9545241464
aF0.5894048098
aF-1.2555799994
aF-1.5112089616
aF-1.5751604143
aF-1.5179939006
aF-1.4853076037
aa(lp492
F-0.3975762345
aF-0.3847756414
aF0.0385868372
aF1.428816094
aF0.9642340391
aF-0.33242915
aF-0.0514578916
aF0.0158006406
aF-0.590827499
aF-0.3596072811
aa(lp493
F0.1734714336
aF-0.3847756414
aF0.0385868372
aF1.0053411408
aF1.5505053977
aF0.359933987
aF0.2404923224
aF0.2146707725
aF0.3019994063
aF-0.1344672166
aasS'training_out'
p494
(lp495
(lp496
F1.0
aa(lp497
F1.0
aa(lp498
F0.0
aa(lp499
F0.666
aa(lp500
F1.0
aa(lp501
F1.0
aa(lp502
F0.333
aa(lp503
F0.0
aa(lp504
F1.0
aa(lp505
F0.666
aa(lp506
F0.0
aa(lp507
F0.0
aa(lp508
F0.0
aa(lp509
F0.666
aa(lp510
F0.333
aa(lp511
F0.0
aa(lp512
F1.0
aa(lp513
F1.0
aa(lp514
F1.0
aa(lp515
F1.0
aa(lp516
F1.0
aa(lp517
F1.0
aa(lp518
F0.0
aa(lp519
F1.0
aa(lp520
F0.0
aa(lp521
F1.0
aa(lp522
F0.0
aa(lp523
F0.0
aa(lp524
F0.0
aa(lp525
F0.0
aa(lp526
F0.666
aa(lp527
F0.666
aa(lp528
F0.333
aa(lp529
F0.0
aa(lp530
F1.0
aa(lp531
F0.333
aa(lp532
F0.333
aa(lp533
F0.0
aa(lp534
F1.0
aa(lp535
F1.0
aa(lp536
F1.0
aa(lp537
F0.0
aa(lp538
F1.0
aa(lp539
F1.0
aa(lp540
F1.0
aa(lp541
F1.0
aa(lp542
F0.0
aa(lp543
F1.0
aa(lp544
F0.0
aa(lp545
F0.666
aa(lp546
F0.666
aa(lp547
F0.0
aa(lp548
F0.0
aa(lp549
F1.0
aa(lp550
F1.0
aa(lp551
F1.0
aa(lp552
F1.0
aa(lp553
F0.333
aa(lp554
F1.0
aa(lp555
F1.0
aa(lp556
F1.0
aa(lp557
F1.0
aa(lp558
F1.0
aa(lp559
F0.0
aa(lp560
F0.0
aa(lp561
F0.333
aa(lp562
F0.0
aa(lp563
F0.0
aa(lp564
F0.0
aa(lp565
F1.0
aa(lp566
F1.0
aa(lp567
F0.666
aa(lp568
F0.0
aa(lp569
F0.0
aa(lp570
F0.0
aa(lp571
F0.0
aa(lp572
F0.666
aa(lp573
F1.0
aa(lp574
F0.333
aa(lp575
F0.666
aa(lp576
F0.333
aa(lp577
F1.0
aa(lp578
F0.333
aa(lp579
F0.333
aa(lp580
F0.0
aa(lp581
F0.666
aa(lp582
F1.0
aa(lp583
F1.0
aa(lp584
F0.0
aa(lp585
F0.0
aa(lp586
F0.0
aa(lp587
F0.0
aa(lp588
F0.666
aa(lp589
F1.0
aa(lp590
F0.0
aa(lp591
F0.666
aa(lp592
F0.666
aa(lp593
F0.0
aa(lp594
F0.666
aa(lp595
F0.666
aa(lp596
F0.0
aa(lp597
F0.666
aa(lp598
F0.666
aa(lp599
F1.0
aa(lp600
F0.0
aa(lp601
F0.0
aa(lp602
F0.0
aa(lp603
F0.0
aa(lp604
F0.0
aa(lp605
F0.0
aa(lp606
F0.666
aa(lp607
F0.666
aa(lp608
F0.0
aa(lp609
F0.666
aa(lp610
F0.666
aa(lp611
F0.0
aa(lp612
F0.0
aa(lp613
F0.666
aa(lp614
F0.666
aa(lp615
F0.666
aa(lp616
F0.666
aa(lp617
F0.666
aa(lp618
F0.0
aa(lp619
F0.0
aa(lp620
F0.0
aa(lp621
F0.0
aa(lp622
F0.666
aa(lp623
F0.666
aa(lp624
F0.666
aa(lp625
F0.0
aa(lp626
F0.0
aa(lp627
F0.666
aa(lp628
F0.666
aa(lp629
F0.666
aa(lp630
F0.666
aa(lp631
F0.666
aa(lp632
F0.666
aa(lp633
F0.666
aa(lp634
F0.0
aa(lp635
F0.0
aa(lp636
F0.666
aa(lp637
F0.666
aa(lp638
F0.0
aa(lp639
F0.0
aa(lp640
F0.0
aa(lp641
F0.0
aa(lp642
F0.0
aa(lp643
F0.0
aa(lp644
F0.0
aa(lp645
F0.0
aa(lp646
F0.0
aa(lp647
F0.0
aa(lp648
F0.666
aa(lp649
F0.0
aa(lp650
F0.0
aa(lp651
F0.0
aa(lp652
F0.0
aa(lp653
F0.666
aa(lp654
F0.0
aa(lp655
F0.0
aa(lp656
F0.0
aa(lp657
F0.666
aa(lp658
F0.666
aa(lp659
F0.0
aa(lp660
F0.0
aa(lp661
F0.0
aa(lp662
F0.666
aa(lp663
F0.0
aa(lp664
F0.0
aa(lp665
F0.0
aa(lp666
F0.0
aa(lp667
F0.0
aa(lp668
F0.0
aa(lp669
F0.666
aa(lp670
F0.666
aa(lp671
F0.0
aa(lp672
F0.0
aa(lp673
F0.0
aa(lp674
F0.666
aa(lp675
F0.0
aa(lp676
F0.666
aa(lp677
F0.666
aa(lp678
F0.666
aa(lp679
F0.0
aa(lp680
F0.0
aa(lp681
F0.0
aa(lp682
F0.666
aa(lp683
F0.666
aa(lp684
F0.0
aa(lp685
F0.0
aa(lp686
F0.0
aa(lp687
F0.0
aa(lp688
F0.666
aa(lp689
F0.0
aa(lp690
F0.666
aa(lp691
F0.0
aa(lp692
F0.0
aa(lp693
F0.0
aa(lp694
F0.666
aa(lp695
F0.666
aa(lp696
F0.0
aa(lp697
F0.0
aa(lp698
F0.0
aa(lp699
F0.0
aa(lp700
F0.0
aa(lp701
F0.0
aa(lp702
F0.666
aa(lp703
F0.666
aa(lp704
F0.0
aa(lp705
F0.666
aa(lp706
F0.666
aa(lp707
F0.666
aa(lp708
F0.666
aa(lp709
F0.666
aa(lp710
F0.666
aa(lp711
F0.0
aa(lp712
F0.0
aa(lp713
F0.333
aa(lp714
F0.0
aa(lp715
F0.0
aa(lp716
F0.0
aa(lp717
F0.0
aa(lp718
F0.666
aa(lp719
F0.666
aa(lp720
F0.0
aa(lp721
F0.666
aa(lp722
F0.666
aa(lp723
F0.0
aa(lp724
F0.0
aa(lp725
F0.0
aa(lp726
F0.0
aa(lp727
F0.0
aa(lp728
F0.0
aa(lp729
F0.0
aa(lp730
F0.0
aa(lp731
F0.0
aa(lp732
F0.0
aa(lp733
F0.666
aa(lp734
F0.0
aa(lp735
F0.0
aa(lp736
F0.0
aa(lp737
F0.666
aasS'hidden_size'
p738
I6
sS'w_1'
p739
(lp740
(lp741
F9.862260481319302
aa(lp742
F-15.098713541345456
aa(lp743
F9.252082601851924
aa(lp744
F5.143747681940621
aa(lp745
F10.893767731667234
aa(lp746
F-6.797619533322417
aasS'w_0'
p747
(lp748
(lp749
F4.370120208218415
aF-4.657491913577605
aF7.772216981897797
aF2.011230720651276
aF5.307194307531226
aF-5.630370402620674
aa(lp750
F2.1610755361195984
aF-0.4078346565944977
aF-0.39895430164031936
aF-2.249600508510004
aF-5.976750270952444
aF-0.3344859245241168
aa(lp751
F4.480389795565926
aF-6.664015030778487
aF5.974670220289617
aF0.06815947933626154
aF0.2628645651903235
aF0.6068668063178668
aa(lp752
F0.9779216022169894
aF2.0664312185329727
aF1.7094719176629416
aF-1.1886322111357066
aF1.1666858421104316
aF0.6138400556999699
aa(lp753
F-0.5312514729869949
aF-2.2120057966708644
aF-1.0198741439013013
aF-0.9349006241668414
aF-0.9034474238601248
aF2.4486376329427895
aa(lp754
F-0.5991005053045464
aF0.1104213058565856
aF0.40832797169338564
aF0.7292981732229766
aF3.9890176590385007
aF-0.2611864335312292
aa(lp755
F0.936756998907083
aF1.0278257382409932
aF-1.230483898452366
aF3.1460644909789686
aF5.663828367564825
aF0.7350684418981602
aa(lp756
F-1.3483581303360745
aF-0.03526318715592958
aF2.1175067021813465
aF3.1556119068638253
aF3.5787609250186185
aF1.610122762276337
aa(lp757
F-1.4321167270681703
aF-0.47495338198137027
aF1.209062766260195
aF1.1538697080165485
aF2.5092972155032247
aF1.9905101559794403
aa(lp758
F0.12079440400536588
aF0.7709587015959557
aF-0.6940181399350427
aF2.74654722727193
aF-5.90644790694558
aF-2.467998766956424
aasb.